; ModuleID = '25/903.cpp'
source_filename = "25/903.cpp"
target datalayout = "e-m:e-p270:32:32-p271:32:32-p272:64:64-i64:64-f80:128-n8:16:32:64-S128"
target triple = "x86_64-pc-linux-gnu"

%"class.std::ios_base::Init" = type { i8 }
%"class.std::basic_istream" = type { i32 (...)**, i64, %"class.std::basic_ios" }
%"class.std::basic_ios" = type { %"class.std::ios_base", %"class.std::basic_ostream"*, i8, i8, %"class.std::basic_streambuf"*, %"class.std::ctype"*, %"class.std::num_put"*, %"class.std::num_get"* }
%"class.std::ios_base" = type { i32 (...)**, i64, i64, i32, i32, i32, %"struct.std::ios_base::_Callback_list"*, %"struct.std::ios_base::_Words", [8 x %"struct.std::ios_base::_Words"], i32, %"struct.std::ios_base::_Words"*, %"class.std::locale" }
%"struct.std::ios_base::_Callback_list" = type { %"struct.std::ios_base::_Callback_list"*, void (i32, %"class.std::ios_base"*, i32)*, i32, i32 }
%"struct.std::ios_base::_Words" = type { i8*, i64 }
%"class.std::locale" = type { %"class.std::locale::_Impl"* }
%"class.std::locale::_Impl" = type { i32, %"class.std::locale::facet"**, i64, %"class.std::locale::facet"**, i8** }
%"class.std::locale::facet" = type <{ i32 (...)**, i32, [4 x i8] }>
%"class.std::basic_ostream" = type { i32 (...)**, %"class.std::basic_ios" }
%"class.std::basic_streambuf" = type { i32 (...)**, i8*, i8*, i8*, i8*, i8*, i8*, %"class.std::locale" }
%"class.std::ctype" = type <{ %"class.std::locale::facet.base", [4 x i8], %struct.__locale_struct*, i8, [7 x i8], i32*, i32*, i16*, i8, [256 x i8], [256 x i8], i8, [6 x i8] }>
%"class.std::locale::facet.base" = type <{ i32 (...)**, i32 }>
%struct.__locale_struct = type { [13 x %struct.__locale_data*], i16*, i32*, i32*, [13 x i8*] }
%struct.__locale_data = type opaque
%"class.std::num_put" = type { %"class.std::locale::facet.base", [4 x i8] }
%"class.std::num_get" = type { %"class.std::locale::facet.base", [4 x i8] }

@_ZStL8__ioinit = internal global %"class.std::ios_base::Init" zeroinitializer, align 1
@__dso_handle = external hidden global i8
@_ZSt3cin = external dso_local global %"class.std::basic_istream", align 8
@_ZSt4cout = external dso_local global %"class.std::basic_ostream", align 8
@llvm.global_ctors = appending global [1 x { i32, void ()*, i8* }] [{ i32, void ()*, i8* } { i32 65535, void ()* @_GLOBAL__sub_I_903.cpp, i8* null }]

; Function Attrs: noinline uwtable
define internal void @__cxx_global_var_init() #0 section ".text.startup" {
  call void @_ZNSt8ios_base4InitC1Ev(%"class.std::ios_base::Init"* @_ZStL8__ioinit)
  %1 = call i32 @__cxa_atexit(void (i8*)* bitcast (void (%"class.std::ios_base::Init"*)* @_ZNSt8ios_base4InitD1Ev to void (i8*)*), i8* getelementptr inbounds (%"class.std::ios_base::Init", %"class.std::ios_base::Init"* @_ZStL8__ioinit, i32 0, i32 0), i8* @__dso_handle) #3
  ret void
}

declare dso_local void @_ZNSt8ios_base4InitC1Ev(%"class.std::ios_base::Init"*) unnamed_addr #1

; Function Attrs: nounwind
declare dso_local void @_ZNSt8ios_base4InitD1Ev(%"class.std::ios_base::Init"*) unnamed_addr #2

; Function Attrs: nounwind
declare dso_local i32 @__cxa_atexit(void (i8*)*, i8*, i8*) #3

; Function Attrs: noinline norecurse uwtable
define dso_local i32 @main() #4 {
  %1 = alloca i32, align 4
  %2 = alloca i32, align 4
  %3 = alloca i32, align 4
  %4 = alloca i32, align 4
  %5 = alloca i32, align 4
  %6 = alloca [50 x i32], align 16
  store i32 0, i32* %1, align 4
  store i32 1, i32* %5, align 4
  %7 = call dereferenceable(280) %"class.std::basic_istream"* @_ZNSirsERi(%"class.std::basic_istream"* @_ZSt3cin, i32* dereferenceable(4) %4)
  %8 = getelementptr inbounds [50 x i32], [50 x i32]* %6, i64 0, i64 0
  %9 = bitcast i32* %8 to i8*
  call void @llvm.memset.p0i8.i64(i8* align 16 %9, i8 0, i64 200, i1 false)
  %10 = getelementptr inbounds [50 x i32], [50 x i32]* %6, i64 0, i64 0
  store i32 1, i32* %10, align 16
  store i32 0, i32* %2, align 4
  br label %11

11:                                               ; preds = %65, %0
  %12 = load i32, i32* %2, align 4
  %13 = load i32, i32* %4, align 4
  %14 = icmp slt i32 %12, %13
  br i1 %14, label %15, label %68

15:                                               ; preds = %11
  store i32 0, i32* %3, align 4
  br label %16

16:                                               ; preds = %28, %15
  %17 = load i32, i32* %3, align 4
  %18 = icmp slt i32 %17, 50
  br i1 %18, label %19, label %31

19:                                               ; preds = %16
  %20 = load i32, i32* %3, align 4
  %21 = sext i32 %20 to i64
  %22 = getelementptr inbounds [50 x i32], [50 x i32]* %6, i64 0, i64 %21
  %23 = load i32, i32* %22, align 4
  %24 = mul nsw i32 %23, 2
  %25 = load i32, i32* %3, align 4
  %26 = sext i32 %25 to i64
  %27 = getelementptr inbounds [50 x i32], [50 x i32]* %6, i64 0, i64 %26
  store i32 %24, i32* %27, align 4
  br label %28

28:                                               ; preds = %19
  %29 = load i32, i32* %3, align 4
  %30 = add nsw i32 %29, 1
  store i32 %30, i32* %3, align 4
  br label %16

31:                                               ; preds = %16
  store i32 0, i32* %3, align 4
  br label %32

32:                                               ; preds = %61, %31
  %33 = load i32, i32* %3, align 4
  %34 = icmp slt i32 %33, 50
  br i1 %34, label %35, label %64

35:                                               ; preds = %32
  %36 = load i32, i32* %3, align 4
  %37 = sext i32 %36 to i64
  %38 = getelementptr inbounds [50 x i32], [50 x i32]* %6, i64 0, i64 %37
  %39 = load i32, i32* %38, align 4
  %40 = icmp sge i32 %39, 10
  br i1 %40, label %41, label %60

41:                                               ; preds = %35
  %42 = load i32, i32* %3, align 4
  %43 = sext i32 %42 to i64
  %44 = getelementptr inbounds [50 x i32], [50 x i32]* %6, i64 0, i64 %43
  %45 = load i32, i32* %44, align 4
  %46 = srem i32 %45, 10
  %47 = load i32, i32* %3, align 4
  %48 = sext i32 %47 to i64
  %49 = getelementptr inbounds [50 x i32], [50 x i32]* %6, i64 0, i64 %48
  store i32 %46, i32* %49, align 4
  %50 = load i32, i32* %3, align 4
  %51 = add nsw i32 %50, 1
  %52 = sext i32 %51 to i64
  %53 = getelementptr inbounds [50 x i32], [50 x i32]* %6, i64 0, i64 %52
  %54 = load i32, i32* %53, align 4
  %55 = add nsw i32 %54, 1
  %56 = load i32, i32* %3, align 4
  %57 = add nsw i32 %56, 1
  %58 = sext i32 %57 to i64
  %59 = getelementptr inbounds [50 x i32], [50 x i32]* %6, i64 0, i64 %58
  store i32 %55, i32* %59, align 4
  br label %60

60:                                               ; preds = %41, %35
  br label %61

61:                                               ; preds = %60
  %62 = load i32, i32* %3, align 4
  %63 = add nsw i32 %62, 1
  store i32 %63, i32* %3, align 4
  br label %32

64:                                               ; preds = %32
  br label %65

65:                                               ; preds = %64
  %66 = load i32, i32* %2, align 4
  %67 = add nsw i32 %66, 1
  store i32 %67, i32* %2, align 4
  br label %11

68:                                               ; preds = %11
  store i32 49, i32* %2, align 4
  br label %69

69:                                               ; preds = %95, %68
  %70 = load i32, i32* %2, align 4
  %71 = icmp sge i32 %70, 0
  br i1 %71, label %72, label %98

72:                                               ; preds = %69
  %73 = load i32, i32* %2, align 4
  %74 = sext i32 %73 to i64
  %75 = getelementptr inbounds [50 x i32], [50 x i32]* %6, i64 0, i64 %74
  %76 = load i32, i32* %75, align 4
  %77 = icmp eq i32 %76, 0
  br i1 %77, label %78, label %82

78:                                               ; preds = %72
  %79 = load i32, i32* %5, align 4
  %80 = icmp eq i32 %79, 1
  br i1 %80, label %81, label %82

81:                                               ; preds = %78
  br label %95

82:                                               ; preds = %78, %72
  %83 = load i32, i32* %2, align 4
  %84 = sext i32 %83 to i64
  %85 = getelementptr inbounds [50 x i32], [50 x i32]* %6, i64 0, i64 %84
  %86 = load i32, i32* %85, align 4
  %87 = icmp ne i32 %86, 0
  br i1 %87, label %88, label %89

88:                                               ; preds = %82
  store i32 0, i32* %5, align 4
  br label %89

89:                                               ; preds = %88, %82
  %90 = load i32, i32* %2, align 4
  %91 = sext i32 %90 to i64
  %92 = getelementptr inbounds [50 x i32], [50 x i32]* %6, i64 0, i64 %91
  %93 = load i32, i32* %92, align 4
  %94 = call dereferenceable(272) %"class.std::basic_ostream"* @_ZNSolsEi(%"class.std::basic_ostream"* @_ZSt4cout, i32 %93)
  br label %95

95:                                               ; preds = %89, %81
  %96 = load i32, i32* %2, align 4
  %97 = add nsw i32 %96, -1
  store i32 %97, i32* %2, align 4
  br label %69

98:                                               ; preds = %69
  ret i32 0
}

declare dso_local dereferenceable(280) %"class.std::basic_istream"* @_ZNSirsERi(%"class.std::basic_istream"*, i32* dereferenceable(4)) #1

; Function Attrs: argmemonly nounwind willreturn
declare void @llvm.memset.p0i8.i64(i8* nocapture writeonly, i8, i64, i1 immarg) #5

declare dso_local dereferenceable(272) %"class.std::basic_ostream"* @_ZNSolsEi(%"class.std::basic_ostream"*, i32) #1

; Function Attrs: noinline uwtable
define internal void @_GLOBAL__sub_I_903.cpp() #0 section ".text.startup" {
  call void @__cxx_global_var_init()
  ret void
}


!llvm.module.flags = !{!0}
!llvm.ident = !{!1}

!0 = !{i32 1, !"wchar_size", i32 4}
!1 = !{!"clang version 10.0.0-4ubuntu1 "}
